target datalayout = "e-m:e-p270:32:32-p271:32:32-p272:64:64-i64:64-i128:128-f80:128-n8:16:32:64-S128"
target triple = "x86_64-pc-linux-gnu"

%struct._ftype_t = type { i32, i32, ptr, ptr, ptr, ptr, ptr, ptr, ptr, ptr, ptr, ptr, ptr, ptr, ptr, %union.anon, %union.anon.0, ptr, ptr, ptr, ptr, ptr, ptr, ptr, ptr, ptr, ptr, ptr, ptr, ptr, ptr, ptr }
%union.anon = type { ptr }
%union.anon.0 = type { ptr }
%struct._fvalue_t = type { ptr, %union.anon.1 }
%union.anon.1 = type { %struct._protocol_value_t }
%struct._protocol_value_t = type { ptr, i32, ptr, i8 }

; Function Attrs: null_pointer_is_valid sspstrong uwtable
define internal ptr @uinteger64_to_repr(ptr noundef %0, ptr noundef %1, i32 noundef %2, i32 noundef %3) #0 {
  %5 = alloca ptr, align 8
  %6 = alloca ptr, align 8
  %7 = alloca i32, align 4
  %8 = alloca i32, align 4
  %9 = alloca i64, align 8
  %10 = alloca ptr, align 8
  %11 = alloca ptr, align 8
  store ptr %0, ptr %5, align 8
  store ptr %1, ptr %6, align 8
  store i32 %2, ptr %7, align 4
  store i32 %3, ptr %8, align 4
  call void @llvm.lifetime.start.p0(i64 8, ptr %9) #10
  store i64 21, ptr %9, align 8
  call void @llvm.lifetime.start.p0(i64 8, ptr %10) #10
  %12 = load ptr, ptr %5, align 8
  %13 = load i64, ptr %9, align 8
  %14 = call noalias ptr @wmem_alloc(ptr noundef %12, i64 noundef %13) #11
  store ptr %14, ptr %10, align 8
  call void @llvm.lifetime.start.p0(i64 8, ptr %11) #10
  %15 = load ptr, ptr %10, align 8
  store ptr %15, ptr %11, align 8
  %16 = load i32, ptr %8, align 4
  %17 = and i32 %16, 255
  %18 = icmp eq i32 %17, 2
  br i1 %18, label %23, label %19

19:                                               ; preds = %4
  %20 = load i32, ptr %8, align 4
  %21 = and i32 %20, 255
  %22 = icmp eq i32 %21, 5
  br i1 %22, label %23, label %79

23:                                               ; preds = %19, %4
  %24 = load ptr, ptr %11, align 8
  %25 = getelementptr i8, ptr %24, i32 1
  store ptr %25, ptr %11, align 8
  store i8 48, ptr %24, align 1
  %26 = load ptr, ptr %11, align 8
  %27 = getelementptr i8, ptr %26, i32 1
  store ptr %27, ptr %11, align 8
  store i8 120, ptr %26, align 1
  %28 = load ptr, ptr %6, align 8
  %29 = getelementptr inbounds nuw %struct._fvalue_t, ptr %28, i32 0, i32 0
  %30 = load ptr, ptr %29, align 8
  %31 = getelementptr inbounds nuw %struct._ftype_t, ptr %30, i32 0, i32 0
  %32 = load i32, ptr %31, align 8
  switch i32 %32, label %70 [
    i32 4, label %33
    i32 5, label %40
    i32 6, label %47
    i32 7, label %63
  ]

33:                                               ; preds = %23
  %34 = load ptr, ptr %11, align 8
  %35 = load ptr, ptr %6, align 8
  %36 = getelementptr inbounds nuw %struct._fvalue_t, ptr %35, i32 0, i32 1
  %37 = load i64, ptr %36, align 8
  %38 = trunc i64 %37 to i8
  %39 = call ptr @uint8_to_hex(ptr noundef %34, i8 noundef zeroext %38)
  store ptr %39, ptr %11, align 8
  br label %76

40:                                               ; preds = %23
  %41 = load ptr, ptr %11, align 8
  %42 = load ptr, ptr %6, align 8
  %43 = getelementptr inbounds nuw %struct._fvalue_t, ptr %42, i32 0, i32 1
  %44 = load i64, ptr %43, align 8
  %45 = trunc i64 %44 to i16
  %46 = call ptr @word_to_hex(ptr noundef %41, i16 noundef zeroext %45)
  store ptr %46, ptr %11, align 8
  br label %76

47:                                               ; preds = %23
  %48 = load ptr, ptr %11, align 8
  %49 = load ptr, ptr %6, align 8
  %50 = getelementptr inbounds nuw %struct._fvalue_t, ptr %49, i32 0, i32 1
  %51 = load i64, ptr %50, align 8
  %52 = and i64 %51, 16711680
  %53 = lshr i64 %52, 16
  %54 = trunc i64 %53 to i8
  %55 = call ptr @uint8_to_hex(ptr noundef %48, i8 noundef zeroext %54)
  store ptr %55, ptr %11, align 8
  %56 = load ptr, ptr %11, align 8
  %57 = load ptr, ptr %6, align 8
  %58 = getelementptr inbounds nuw %struct._fvalue_t, ptr %57, i32 0, i32 1
  %59 = load i64, ptr %58, align 8
  %60 = and i64 %59, 65535
  %61 = trunc i64 %60 to i16
  %62 = call ptr @word_to_hex(ptr noundef %56, i16 noundef zeroext %61)
  store ptr %62, ptr %11, align 8
  br label %76

63:                                               ; preds = %23
  %64 = load ptr, ptr %11, align 8
  %65 = load ptr, ptr %6, align 8
  %66 = getelementptr inbounds nuw %struct._fvalue_t, ptr %65, i32 0, i32 1
  %67 = load i64, ptr %66, align 8
  %68 = trunc i64 %67 to i32
  %69 = call ptr @dword_to_hex(ptr noundef %64, i32 noundef %68)
  store ptr %69, ptr %11, align 8
  br label %76

70:                                               ; preds = %23
  %71 = load ptr, ptr %11, align 8
  %72 = load ptr, ptr %6, align 8
  %73 = getelementptr inbounds nuw %struct._fvalue_t, ptr %72, i32 0, i32 1
  %74 = load i64, ptr %73, align 8
  %75 = call ptr @qword_to_hex(ptr noundef %71, i64 noundef %74)
  store ptr %75, ptr %11, align 8
  br label %76

76:                                               ; preds = %70, %63, %47, %40, %33
  %77 = load ptr, ptr %11, align 8
  %78 = getelementptr i8, ptr %77, i32 1
  store ptr %78, ptr %11, align 8
  store i8 0, ptr %77, align 1
  br label %85

79:                                               ; preds = %19
  %80 = load ptr, ptr %6, align 8
  %81 = getelementptr inbounds nuw %struct._fvalue_t, ptr %80, i32 0, i32 1
  %82 = load i64, ptr %81, align 8
  %83 = load ptr, ptr %11, align 8
  %84 = load i64, ptr %9, align 8
  call void @uint64_to_str_buf(i64 noundef %82, ptr noundef %83, i64 noundef %84)
  br label %85

85:                                               ; preds = %79, %76
  %86 = load ptr, ptr %10, align 8
  call void @llvm.lifetime.end.p0(i64 8, ptr %11) #10
  call void @llvm.lifetime.end.p0(i64 8, ptr %10) #10
  call void @llvm.lifetime.end.p0(i64 8, ptr %9) #10
  ret ptr %86
}