; Function Attrs: null_pointer_is_valid sspstrong uwtable
define internal noundef ptr @uinteger64_to_repr(ptr noundef %0, ptr noundef readonly captures(none) %1, i32 %2, i32 noundef %3) #0 {
  %5 = tail call noalias dereferenceable_or_null(21) ptr @wmem_alloc(ptr noundef %0, i64 noundef 21) #12
  %trunc = trunc i32 %3 to i8
  switch i8 %trunc, label %32 [
    i8 2, label %6
    i8 5, label %6
  ]

6:                                                ; preds = %4, %4
  %7 = getelementptr i8, ptr %5, i64 1
  store i8 48, ptr %5, align 1
  %8 = getelementptr i8, ptr %5, i64 2
  store i8 120, ptr %7, align 1
  %9 = load ptr, ptr %1, align 8
  %10 = load i32, ptr %9, align 8
  %11 = getelementptr inbounds nuw i8, ptr %1, i64 8
  %12 = load i64, ptr %11, align 8
  switch i32 %10, label %29 [
    i32 4, label %13
    i32 5, label %16
    i32 6, label %19
    i32 7, label %26
  ]

13:                                               ; preds = %6
  %14 = trunc i64 %12 to i8
  %15 = tail call ptr @uint8_to_hex(ptr noundef %8, i8 noundef zeroext %14)
  br label %31

16:                                               ; preds = %6
  %17 = trunc i64 %12 to i16
  %18 = tail call ptr @word_to_hex(ptr noundef %8, i16 noundef zeroext %17)
  br label %31

19:                                               ; preds = %6
  %20 = lshr i64 %12, 16
  %21 = trunc i64 %20 to i8
  %22 = tail call ptr @uint8_to_hex(ptr noundef %8, i8 noundef zeroext %21)
  %23 = load i64, ptr %11, align 8
  %24 = trunc i64 %23 to i16
  %25 = tail call ptr @word_to_hex(ptr noundef %22, i16 noundef zeroext %24)
  br label %31

26:                                               ; preds = %6
  %27 = trunc i64 %12 to i32
  %28 = tail call ptr @dword_to_hex(ptr noundef %8, i32 noundef %27)
  br label %31

29:                                               ; preds = %6
  %30 = tail call ptr @qword_to_hex(ptr noundef %8, i64 noundef %12)
  br label %31

31:                                               ; preds = %29, %26, %19, %16, %13
  %.0 = phi ptr [ %30, %29 ], [ %28, %26 ], [ %25, %19 ], [ %18, %16 ], [ %15, %13 ]
  store i8 0, ptr %.0, align 1
  br label %35

32:                                               ; preds = %4
  %33 = getelementptr inbounds nuw i8, ptr %1, i64 8
  %34 = load i64, ptr %33, align 8
  tail call void @uint64_to_str_buf(i64 noundef %34, ptr noundef %5, i64 noundef 21)
  br label %35

35:                                               ; preds = %32, %31
  ret ptr %5
}